target datalayout = "e-m:e-p270:32:32-p271:32:32-p272:64:64-i64:64-i128:128-f80:128-n8:16:32:64-S128"
target triple = "x86_64-pc-linux-gnu"

%struct.ident_t = type { i32, i32, i32, i32, ptr }
%"struct.faiss::IndexNSG" = type <{ %"struct.faiss::Index.base", [4 x i8], %"struct.faiss::NSG", i8, [7 x i8], ptr, i8, [3 x i8], i32, i8, [3 x i8], i32, i32, i32, i32, [4 x i8] }>
%"struct.faiss::Index.base" = type <{ ptr, i32, [4 x i8], i64, i8, i8, [2 x i8], i32, float }>
%"struct.faiss::NSG" = type { i32, i32, i32, i32, i32, i32, %"class.std::shared_ptr", i8, %"struct.faiss::RandomGenerator" }
%"class.std::shared_ptr" = type { %"class.std::__shared_ptr" }
%"class.std::__shared_ptr" = type { ptr, %"class.std::__shared_count" }
%"class.std::__shared_count" = type { ptr }
%"struct.faiss::RandomGenerator" = type { %"class.std::mersenne_twister_engine" }
%"class.std::mersenne_twister_engine" = type { [624 x i64], i64 }
%"struct.faiss::Index" = type <{ ptr, i32, [4 x i8], i64, i8, i8, [2 x i8], i32, float, [4 x i8] }>
%"struct.std::_Vector_base.6" = type { %"struct.std::_Vector_base<long, std::allocator<long>>::_Vector_impl" }
%"struct.std::_Vector_base<long, std::allocator<long>>::_Vector_impl" = type { %"struct.std::_Vector_base<long, std::allocator<long>>::_Vector_impl_data" }
%"struct.std::_Vector_base<long, std::allocator<long>>::_Vector_impl_data" = type { ptr, ptr, ptr }

@1 = private unnamed_addr constant %struct.ident_t { i32 0, i32 514, i32 0, i32 22, ptr @0 }, align 8

; Function Attrs: mustprogress nounwind uwtable
define linkonce_odr noundef nonnull align 8 dereferenceable(8) ptr @_ZNSt6vectorIlSaIlEEixEm(ptr noundef nonnull align 8 dereferenceable(24) %0, i64 noundef %1) #0 comdat align 2 {
  %3 = alloca ptr, align 8
  %4 = alloca i64, align 8
  store ptr %0, ptr %3, align 8
  store i64 %1, ptr %4, align 8
  %5 = load ptr, ptr %3, align 8
  %6 = getelementptr inbounds %"struct.std::_Vector_base.6", ptr %5, i32 0, i32 0
  %7 = getelementptr inbounds %"struct.std::_Vector_base<long, std::allocator<long>>::_Vector_impl_data", ptr %6, i32 0, i32 0
  %8 = load ptr, ptr %7, align 8
  %9 = load i64, ptr %4, align 8
  %10 = getelementptr inbounds i64, ptr %8, i64 %9
  ret ptr %10
}

; Function Attrs: norecurse nounwind uwtable
define internal void @_ZN5faiss8IndexNSG3addElPKf.omp_outlined(ptr noalias noundef %0, ptr noalias noundef %1, ptr noundef %2, ptr noundef nonnull align 8 dereferenceable(24) %3, ptr noundef nonnull align 8 dereferenceable(8) %4) #6 {
  %6 = alloca ptr, align 8
  %7 = alloca ptr, align 8
  %8 = alloca ptr, align 8
  %9 = alloca ptr, align 8
  %10 = alloca ptr, align 8
  %11 = alloca i64, align 8
  %12 = alloca i64, align 8
  %13 = alloca i64, align 8
  %14 = alloca i64, align 8
  %15 = alloca i64, align 8
  %16 = alloca i64, align 8
  %17 = alloca i64, align 8
  %18 = alloca i32, align 4
  %19 = alloca i64, align 8
  store ptr %0, ptr %6, align 8
  store ptr %1, ptr %7, align 8
  store ptr %2, ptr %8, align 8
  store ptr %3, ptr %9, align 8
  store ptr %4, ptr %10, align 8
  %20 = load ptr, ptr %8, align 8
  %21 = load ptr, ptr %9, align 8
  %22 = load ptr, ptr %10, align 8
  %23 = getelementptr inbounds %"struct.faiss::Index", ptr %20, i32 0, i32 3
  %24 = load i64, ptr %23, align 8
  %25 = getelementptr inbounds %"struct.faiss::IndexNSG", ptr %20, i32 0, i32 8
  %26 = load i32, ptr %25, align 4
  %27 = sext i32 %26 to i64
  %28 = mul nsw i64 %24, %27
  store i64 %28, ptr %12, align 8
  %29 = load i64, ptr %12, align 8
  %30 = sub nsw i64 %29, 0
  %31 = sdiv i64 %30, 1
  %32 = sub nsw i64 %31, 1
  store i64 %32, ptr %13, align 8
  store i64 0, ptr %14, align 8
  %33 = load i64, ptr %12, align 8
  %34 = icmp slt i64 0, %33
  br i1 %34, label %35, label %72

35:                                               ; preds = %5
  store i64 0, ptr %15, align 8
  %36 = load i64, ptr %13, align 8
  store i64 %36, ptr %16, align 8
  store i64 1, ptr %17, align 8
  store i32 0, ptr %18, align 4
  %37 = load ptr, ptr %6, align 8
  %38 = load i32, ptr %37, align 4
  call void @__kmpc_for_static_init_8(ptr @1, i32 %38, i32 34, ptr %18, ptr %15, ptr %16, ptr %17, i64 1, i64 1)
  %39 = load i64, ptr %16, align 8
  %40 = load i64, ptr %13, align 8
  %41 = icmp sgt i64 %39, %40
  br i1 %41, label %42, label %44

42:                                               ; preds = %35
  %43 = load i64, ptr %13, align 8
  br label %46

44:                                               ; preds = %35
  %45 = load i64, ptr %16, align 8
  br label %46

46:                                               ; preds = %44, %42
  %47 = phi i64 [ %43, %42 ], [ %45, %44 ]
  store i64 %47, ptr %16, align 8
  %48 = load i64, ptr %15, align 8
  store i64 %48, ptr %11, align 8
  br label %49

49:                                               ; preds = %65, %46
  %50 = load i64, ptr %11, align 8
  %51 = load i64, ptr %16, align 8
  %52 = icmp sle i64 %50, %51
  br i1 %52, label %53, label %68

53:                                               ; preds = %49
  %54 = load i64, ptr %11, align 8
  %55 = mul nsw i64 %54, 1
  %56 = add nsw i64 0, %55
  store i64 %56, ptr %19, align 8
  %57 = load ptr, ptr %22, align 8
  %58 = load i64, ptr %19, align 8
  %59 = getelementptr inbounds i32, ptr %57, i64 %58
  %60 = load i32, ptr %59, align 4
  %61 = sext i32 %60 to i64
  %62 = load i64, ptr %19, align 8
  %63 = call noundef nonnull align 8 dereferenceable(8) ptr @_ZNSt6vectorIlSaIlEEixEm(ptr noundef nonnull align 8 dereferenceable(24) %21, i64 noundef %62) #7
  store i64 %61, ptr %63, align 8
  br label %64

64:                                               ; preds = %53
  br label %65

65:                                               ; preds = %64
  %66 = load i64, ptr %11, align 8
  %67 = add nsw i64 %66, 1
  store i64 %67, ptr %11, align 8
  br label %49

68:                                               ; preds = %49
  br label %69

69:                                               ; preds = %68
  %70 = load ptr, ptr %6, align 8
  %71 = load i32, ptr %70, align 4
  call void @__kmpc_for_static_fini(ptr @1, i32 %71)
  br label %72

72:                                               ; preds = %69, %5
  ret void
}