; Function Attrs: norecurse nounwind uwtable
define internal void @_ZN5faiss8IndexNSG3addElPKf.omp_outlined(ptr noalias nocapture noundef readonly %0, ptr noalias nocapture readnone %1, ptr nocapture noundef readonly %2, ptr nocapture noundef nonnull readonly align 8 dereferenceable(24) %3, ptr nocapture noundef nonnull readonly align 8 dereferenceable(8) %4) #7 {
  %6 = alloca i64, align 8
  %7 = alloca i64, align 8
  %8 = alloca i64, align 8
  %9 = alloca i32, align 4
  %10 = getelementptr inbounds i8, ptr %2, i64 16
  %11 = load i64, ptr %10, align 8
  %12 = getelementptr inbounds i8, ptr %2, i64 5108
  %13 = load i32, ptr %12, align 4
  %14 = sext i32 %13 to i64
  %15 = mul nsw i64 %11, %14
  %16 = icmp sgt i64 %15, 0
  br i1 %16, label %17, label %31

17:                                               ; preds = %5
  %18 = add nsw i64 %15, -1
  store i64 0, ptr %6, align 8
  store i64 %18, ptr %7, align 8
  store i64 1, ptr %8, align 8
  store i32 0, ptr %9, align 4
  %19 = load i32, ptr %0, align 4
  call void @__kmpc_for_static_init_8(ptr nonnull @1, i32 %19, i32 34, ptr nonnull %9, ptr nonnull %6, ptr nonnull %7, ptr nonnull %8, i64 1, i64 1)
  %20 = load i64, ptr %7, align 8
  %21 = call i64 @llvm.smin.i64(i64 %20, i64 %18)
  store i64 %21, ptr %7, align 8
  %22 = load i64, ptr %6, align 8
  %.not14 = icmp sgt i64 %22, %21
  br i1 %.not14, label %._crit_edge, label %.lr.ph

.lr.ph:                                           ; preds = %17, %.lr.ph
  %.015 = phi i64 [ %29, %.lr.ph ], [ %22, %17 ]
  %23 = load ptr, ptr %4, align 8
  %24 = getelementptr inbounds i32, ptr %23, i64 %.015
  %25 = load i32, ptr %24, align 4
  %26 = sext i32 %25 to i64
  %27 = load ptr, ptr %3, align 8
  %28 = getelementptr inbounds i64, ptr %27, i64 %.015
  store i64 %26, ptr %28, align 8
  %29 = add nsw i64 %.015, 1
  %30 = load i64, ptr %7, align 8
  %.not.not = icmp slt i64 %.015, %30
  br i1 %.not.not, label %.lr.ph, label %._crit_edge

._crit_edge:                                      ; preds = %.lr.ph, %17
  call void @__kmpc_for_static_fini(ptr nonnull @1, i32 %19)
  br label %31

31:                                               ; preds = %._crit_edge, %5
  ret void
}